target datalayout = "e-m:e-p270:32:32-p271:32:32-p272:64:64-i64:64-i128:128-f80:128-n8:16:32:64-S128"
target triple = "x86_64-pc-linux-gnu"

; Function Attrs: nounwind uwtable
define void @right_mult_with_vector_ff(ptr noundef %0, i32 noundef %1, ptr noundef %2, ptr noundef %3) #0 {
  %5 = alloca ptr, align 8
  %6 = alloca i32, align 4
  %7 = alloca ptr, align 8
  %8 = alloca ptr, align 8
  %9 = alloca i32, align 4
  %10 = alloca i32, align 4
  %11 = alloca i32, align 4
  %12 = alloca float, align 4
  %13 = alloca float, align 4
  store ptr %0, ptr %5, align 8, !tbaa !40
  store i32 %1, ptr %6, align 4, !tbaa !8
  store ptr %2, ptr %7, align 8, !tbaa !40
  store ptr %3, ptr %8, align 8, !tbaa !40
  call void @llvm.lifetime.start.p0(i64 4, ptr %9) #8
  call void @llvm.lifetime.start.p0(i64 4, ptr %10) #8
  call void @llvm.lifetime.start.p0(i64 4, ptr %11) #8
  call void @llvm.lifetime.start.p0(i64 4, ptr %12) #8
  call void @llvm.lifetime.start.p0(i64 4, ptr %13) #8
  store i32 0, ptr %9, align 4, !tbaa !8
  br label %14

14:                                               ; preds = %23, %4
  %15 = load i32, ptr %9, align 4, !tbaa !8
  %16 = load i32, ptr %6, align 4, !tbaa !8
  %17 = icmp slt i32 %15, %16
  br i1 %17, label %18, label %26

18:                                               ; preds = %14
  %19 = load ptr, ptr %8, align 8, !tbaa !40
  %20 = load i32, ptr %9, align 4, !tbaa !8
  %21 = sext i32 %20 to i64
  %22 = getelementptr inbounds float, ptr %19, i64 %21
  store float 0.000000e+00, ptr %22, align 4, !tbaa !43
  br label %23

23:                                               ; preds = %18
  %24 = load i32, ptr %9, align 4, !tbaa !8
  %25 = add nsw i32 %24, 1
  store i32 %25, ptr %9, align 4, !tbaa !8
  br label %14, !llvm.loop !78

26:                                               ; preds = %14
  store i32 0, ptr %11, align 4, !tbaa !8
  store i32 0, ptr %9, align 4, !tbaa !8
  br label %27

27:                                               ; preds = %90, %26
  %28 = load i32, ptr %9, align 4, !tbaa !8
  %29 = load i32, ptr %6, align 4, !tbaa !8
  %30 = icmp slt i32 %28, %29
  br i1 %30, label %31, label %93

31:                                               ; preds = %27
  store float 0.000000e+00, ptr %13, align 4, !tbaa !43
  %32 = load ptr, ptr %7, align 8, !tbaa !40
  %33 = load i32, ptr %9, align 4, !tbaa !8
  %34 = sext i32 %33 to i64
  %35 = getelementptr inbounds float, ptr %32, i64 %34
  %36 = load float, ptr %35, align 4, !tbaa !43
  store float %36, ptr %12, align 4, !tbaa !43
  %37 = load ptr, ptr %5, align 8, !tbaa !40
  %38 = load i32, ptr %11, align 4, !tbaa !8
  %39 = add nsw i32 %38, 1
  store i32 %39, ptr %11, align 4, !tbaa !8
  %40 = sext i32 %38 to i64
  %41 = getelementptr inbounds float, ptr %37, i64 %40
  %42 = load float, ptr %41, align 4, !tbaa !43
  %43 = load float, ptr %12, align 4, !tbaa !43
  %44 = load float, ptr %13, align 4, !tbaa !43
  %45 = call float @llvm.fmuladd.f32(float %42, float %43, float %44)
  store float %45, ptr %13, align 4, !tbaa !43
  %46 = load i32, ptr %9, align 4, !tbaa !8
  %47 = add nsw i32 %46, 1
  store i32 %47, ptr %10, align 4, !tbaa !8
  br label %48

48:                                               ; preds = %77, %31
  %49 = load i32, ptr %10, align 4, !tbaa !8
  %50 = load i32, ptr %6, align 4, !tbaa !8
  %51 = icmp slt i32 %49, %50
  br i1 %51, label %52, label %82

52:                                               ; preds = %48
  %53 = load ptr, ptr %5, align 8, !tbaa !40
  %54 = load i32, ptr %11, align 4, !tbaa !8
  %55 = sext i32 %54 to i64
  %56 = getelementptr inbounds float, ptr %53, i64 %55
  %57 = load float, ptr %56, align 4, !tbaa !43
  %58 = load ptr, ptr %7, align 8, !tbaa !40
  %59 = load i32, ptr %10, align 4, !tbaa !8
  %60 = sext i32 %59 to i64
  %61 = getelementptr inbounds float, ptr %58, i64 %60
  %62 = load float, ptr %61, align 4, !tbaa !43
  %63 = load float, ptr %13, align 4, !tbaa !43
  %64 = call float @llvm.fmuladd.f32(float %57, float %62, float %63)
  store float %64, ptr %13, align 4, !tbaa !43
  %65 = load ptr, ptr %5, align 8, !tbaa !40
  %66 = load i32, ptr %11, align 4, !tbaa !8
  %67 = sext i32 %66 to i64
  %68 = getelementptr inbounds float, ptr %65, i64 %67
  %69 = load float, ptr %68, align 4, !tbaa !43
  %70 = load float, ptr %12, align 4, !tbaa !43
  %71 = load ptr, ptr %8, align 8, !tbaa !40
  %72 = load i32, ptr %10, align 4, !tbaa !8
  %73 = sext i32 %72 to i64
  %74 = getelementptr inbounds float, ptr %71, i64 %73
  %75 = load float, ptr %74, align 4, !tbaa !43
  %76 = call float @llvm.fmuladd.f32(float %69, float %70, float %75)
  store float %76, ptr %74, align 4, !tbaa !43
  br label %77

77:                                               ; preds = %52
  %78 = load i32, ptr %10, align 4, !tbaa !8
  %79 = add nsw i32 %78, 1
  store i32 %79, ptr %10, align 4, !tbaa !8
  %80 = load i32, ptr %11, align 4, !tbaa !8
  %81 = add nsw i32 %80, 1
  store i32 %81, ptr %11, align 4, !tbaa !8
  br label %48, !llvm.loop !79

82:                                               ; preds = %48
  %83 = load float, ptr %13, align 4, !tbaa !43
  %84 = load ptr, ptr %8, align 8, !tbaa !40
  %85 = load i32, ptr %9, align 4, !tbaa !8
  %86 = sext i32 %85 to i64
  %87 = getelementptr inbounds float, ptr %84, i64 %86
  %88 = load float, ptr %87, align 4, !tbaa !43
  %89 = fadd float %88, %83
  store float %89, ptr %87, align 4, !tbaa !43
  br label %90

90:                                               ; preds = %82
  %91 = load i32, ptr %9, align 4, !tbaa !8
  %92 = add nsw i32 %91, 1
  store i32 %92, ptr %9, align 4, !tbaa !8
  br label %27, !llvm.loop !80

93:                                               ; preds = %27
  call void @llvm.lifetime.end.p0(i64 4, ptr %13) #8
  call void @llvm.lifetime.end.p0(i64 4, ptr %12) #8
  call void @llvm.lifetime.end.p0(i64 4, ptr %11) #8
  call void @llvm.lifetime.end.p0(i64 4, ptr %10) #8
  call void @llvm.lifetime.end.p0(i64 4, ptr %9) #8
  ret void
}