; Function Attrs: nofree norecurse nosync nounwind memory(argmem: readwrite) uwtable
define void @right_mult_with_vector_ff(ptr noundef readonly captures(none) %0, i32 noundef %1, ptr noundef readonly captures(none) %2, ptr noundef captures(none) %3) local_unnamed_addr #3 {
  %5 = icmp sgt i32 %1, 0
  br i1 %5, label %.lr.ph45.preheader, label %._crit_edge46

.lr.ph45.preheader:                               ; preds = %4
  %6 = zext nneg i32 %1 to i64
  %7 = shl nuw nsw i64 %6, 2
  tail call void @llvm.memset.p0.i64(ptr align 4 %3, i8 0, i64 %7, i1 false), !tbaa !35
  %8 = zext nneg i32 %1 to i64
  %wide.trip.count59 = zext nneg i32 %1 to i64
  br label %.lr.ph45

.lr.ph45:                                         ; preds = %.lr.ph45.preheader, %._crit_edge
  %indvars.iv56 = phi i64 [ 0, %.lr.ph45.preheader ], [ %indvars.iv.next57, %._crit_edge ]
  %indvars.iv49 = phi i64 [ 1, %.lr.ph45.preheader ], [ %indvars.iv.next50, %._crit_edge ]
  %.03243 = phi i32 [ 0, %.lr.ph45.preheader ], [ %.133.lcssa, %._crit_edge ]
  %9 = getelementptr inbounds nuw float, ptr %2, i64 %indvars.iv56
  %10 = load float, ptr %9, align 4, !tbaa !35
  %11 = sext i32 %.03243 to i64
  %12 = getelementptr inbounds float, ptr %0, i64 %11
  %13 = load float, ptr %12, align 4, !tbaa !35
  %14 = tail call float @llvm.fmuladd.f32(float %13, float %10, float 0.000000e+00)
  %indvars.iv.next57 = add nuw nsw i64 %indvars.iv56, 1
  %.13337 = add i32 %.03243, 1
  %15 = icmp samesign ult i64 %indvars.iv.next57, %8
  br i1 %15, label %.lr.ph41.preheader, label %._crit_edge

.lr.ph41.preheader:                               ; preds = %.lr.ph45
  %16 = sext i32 %.13337 to i64
  br label %.lr.ph41

.lr.ph41:                                         ; preds = %.lr.ph41.preheader, %.lr.ph41
  %indvars.iv51 = phi i64 [ %indvars.iv49, %.lr.ph41.preheader ], [ %indvars.iv.next52, %.lr.ph41 ]
  %indvars.iv = phi i64 [ %16, %.lr.ph41.preheader ], [ %indvars.iv.next, %.lr.ph41 ]
  %.039 = phi float [ %14, %.lr.ph41.preheader ], [ %21, %.lr.ph41 ]
  %17 = getelementptr inbounds float, ptr %0, i64 %indvars.iv
  %18 = load float, ptr %17, align 4, !tbaa !35
  %19 = getelementptr inbounds nuw float, ptr %2, i64 %indvars.iv51
  %20 = load float, ptr %19, align 4, !tbaa !35
  %21 = tail call float @llvm.fmuladd.f32(float %18, float %20, float %.039)
  %22 = getelementptr inbounds nuw float, ptr %3, i64 %indvars.iv51
  %23 = load float, ptr %22, align 4, !tbaa !35
  %24 = tail call float @llvm.fmuladd.f32(float %18, float %10, float %23)
  store float %24, ptr %22, align 4, !tbaa !35
  %indvars.iv.next52 = add nuw nsw i64 %indvars.iv51, 1
  %indvars.iv.next = add nsw i64 %indvars.iv, 1
  %exitcond.not = icmp eq i64 %indvars.iv.next52, %wide.trip.count59
  br i1 %exitcond.not, label %._crit_edge.loopexit, label %.lr.ph41, !llvm.loop !71

._crit_edge.loopexit:                             ; preds = %.lr.ph41
  %25 = trunc nsw i64 %indvars.iv.next to i32
  br label %._crit_edge

._crit_edge:                                      ; preds = %._crit_edge.loopexit, %.lr.ph45
  %.0.lcssa = phi float [ %14, %.lr.ph45 ], [ %21, %._crit_edge.loopexit ]
  %.133.lcssa = phi i32 [ %.13337, %.lr.ph45 ], [ %25, %._crit_edge.loopexit ]
  %26 = getelementptr inbounds nuw float, ptr %3, i64 %indvars.iv56
  %27 = load float, ptr %26, align 4, !tbaa !35
  %28 = fadd float %.0.lcssa, %27
  store float %28, ptr %26, align 4, !tbaa !35
  %indvars.iv.next50 = add nuw nsw i64 %indvars.iv49, 1
  %exitcond60.not = icmp eq i64 %indvars.iv.next57, %wide.trip.count59
  br i1 %exitcond60.not, label %._crit_edge46, label %.lr.ph45, !llvm.loop !72

._crit_edge46:                                    ; preds = %._crit_edge, %4
  ret void
}